; Function Attrs: nounwind uwtable
define noalias nonnull ptr @l___private_Lean_Meta_WHNF_0__Lean_Meta_unfoldNestedDIte___lambda__3(ptr noundef %0, ptr noundef readnone captures(none) %1, ptr noundef readnone captures(none) %2, ptr noundef %3) local_unnamed_addr #1 {
  tail call void @lean_inc_heartbeat() #5
  %5 = tail call noalias ptr @mi_malloc_small(i64 noundef 16) #5
  %6 = icmp eq ptr %5, null
  br i1 %6, label %7, label %lean_alloc_ctor.exit

7:                                                ; preds = %4
  tail call void @lean_internal_panic_out_of_memory() #4
  unreachable

lean_alloc_ctor.exit:                             ; preds = %4
  %8 = getelementptr inbounds nuw i8, ptr %5, i64 4
  store i32 1, ptr %5, align 4, !tbaa !4
  store i32 65552, ptr %8, align 4
  %9 = getelementptr inbounds nuw i8, ptr %5, i64 8
  store ptr %0, ptr %9, align 8, !tbaa !12
  tail call void @lean_inc_heartbeat() #5
  %10 = tail call noalias ptr @mi_malloc_small(i64 noundef 24) #5
  %11 = icmp eq ptr %10, null
  br i1 %11, label %12, label %lean_alloc_ctor.exit7

12:                                               ; preds = %lean_alloc_ctor.exit
  tail call void @lean_internal_panic_out_of_memory() #4
  unreachable

lean_alloc_ctor.exit7:                            ; preds = %lean_alloc_ctor.exit
  %13 = getelementptr inbounds nuw i8, ptr %10, i64 4
  store i32 1, ptr %10, align 4, !tbaa !4
  store i32 131096, ptr %13, align 4
  %14 = getelementptr inbounds nuw i8, ptr %10, i64 8
  store ptr %5, ptr %14, align 8, !tbaa !12
  %15 = getelementptr inbounds nuw i8, ptr %10, i64 16
  store ptr %3, ptr %15, align 8, !tbaa !12
  ret ptr %10
}